target datalayout = "e-m:e-p270:32:32-p271:32:32-p272:64:64-i64:64-i128:128-f80:128-n8:16:32:64-S128"
target triple = "x86_64-pc-linux-gnu"

%struct.BrotliHasherParams = type { i32, i32, i32, i32 }
%struct.HasherCommon = type { [4 x ptr], i32, i64, i64, %struct.BrotliHasherParams, i32 }
%struct.H6 = type { i64, i64, i64, i32, i32, i32, ptr, ptr, ptr }

; Function Attrs: nounwind uwtable
define internal void @InitializeH6(ptr noundef %0, ptr noalias noundef %1, ptr noundef %2) #0 {
  %4 = alloca ptr, align 8
  %5 = alloca ptr, align 8
  %6 = alloca ptr, align 8
  store ptr %0, ptr %4, align 8, !tbaa !48
  store ptr %1, ptr %5, align 8, !tbaa !204
  store ptr %2, ptr %6, align 8, !tbaa !129
  %7 = load ptr, ptr %4, align 8, !tbaa !48
  %8 = load ptr, ptr %5, align 8, !tbaa !204
  %9 = getelementptr inbounds nuw %struct.H6, ptr %8, i32 0, i32 6
  store ptr %7, ptr %9, align 8, !tbaa !251
  %10 = load ptr, ptr %5, align 8, !tbaa !204
  %11 = getelementptr inbounds nuw %struct.H6, ptr %10, i32 0, i32 2
  store i64 8922571613522624512, ptr %11, align 8, !tbaa !253
  %12 = load ptr, ptr %4, align 8, !tbaa !48
  %13 = getelementptr inbounds nuw %struct.HasherCommon, ptr %12, i32 0, i32 4
  %14 = getelementptr inbounds nuw %struct.BrotliHasherParams, ptr %13, i32 0, i32 1
  %15 = load i32, ptr %14, align 4, !tbaa !240
  %16 = zext i32 %15 to i64
  %17 = shl i64 1, %16
  %18 = load ptr, ptr %5, align 8, !tbaa !204
  %19 = getelementptr inbounds nuw %struct.H6, ptr %18, i32 0, i32 0
  store i64 %17, ptr %19, align 8, !tbaa !254
  %20 = load ptr, ptr %4, align 8, !tbaa !48
  %21 = getelementptr inbounds nuw %struct.HasherCommon, ptr %20, i32 0, i32 4
  %22 = getelementptr inbounds nuw %struct.BrotliHasherParams, ptr %21, i32 0, i32 2
  %23 = load i32, ptr %22, align 8, !tbaa !243
  %24 = load ptr, ptr %5, align 8, !tbaa !204
  %25 = getelementptr inbounds nuw %struct.H6, ptr %24, i32 0, i32 4
  store i32 %23, ptr %25, align 4, !tbaa !255
  %26 = load ptr, ptr %4, align 8, !tbaa !48
  %27 = getelementptr inbounds nuw %struct.HasherCommon, ptr %26, i32 0, i32 4
  %28 = getelementptr inbounds nuw %struct.BrotliHasherParams, ptr %27, i32 0, i32 2
  %29 = load i32, ptr %28, align 8, !tbaa !243
  %30 = zext i32 %29 to i64
  %31 = shl i64 1, %30
  %32 = load ptr, ptr %5, align 8, !tbaa !204
  %33 = getelementptr inbounds nuw %struct.H6, ptr %32, i32 0, i32 1
  store i64 %31, ptr %33, align 8, !tbaa !256
  %34 = load ptr, ptr %5, align 8, !tbaa !204
  %35 = getelementptr inbounds nuw %struct.H6, ptr %34, i32 0, i32 1
  %36 = load i64, ptr %35, align 8, !tbaa !256
  %37 = sub i64 %36, 1
  %38 = trunc i64 %37 to i32
  %39 = load ptr, ptr %5, align 8, !tbaa !204
  %40 = getelementptr inbounds nuw %struct.H6, ptr %39, i32 0, i32 3
  store i32 %38, ptr %40, align 8, !tbaa !257
  %41 = load ptr, ptr %4, align 8, !tbaa !48
  %42 = getelementptr inbounds nuw %struct.HasherCommon, ptr %41, i32 0, i32 4
  %43 = getelementptr inbounds nuw %struct.BrotliHasherParams, ptr %42, i32 0, i32 3
  %44 = load i32, ptr %43, align 4, !tbaa !249
  %45 = load ptr, ptr %5, align 8, !tbaa !204
  %46 = getelementptr inbounds nuw %struct.H6, ptr %45, i32 0, i32 5
  store i32 %44, ptr %46, align 8, !tbaa !258
  %47 = load ptr, ptr %4, align 8, !tbaa !48
  %48 = getelementptr inbounds nuw %struct.HasherCommon, ptr %47, i32 0, i32 0
  %49 = getelementptr inbounds [4 x ptr], ptr %48, i64 0, i64 0
  %50 = load ptr, ptr %49, align 8, !tbaa !48
  %51 = load ptr, ptr %5, align 8, !tbaa !204
  %52 = getelementptr inbounds nuw %struct.H6, ptr %51, i32 0, i32 7
  store ptr %50, ptr %52, align 8, !tbaa !259
  %53 = load ptr, ptr %4, align 8, !tbaa !48
  %54 = getelementptr inbounds nuw %struct.HasherCommon, ptr %53, i32 0, i32 0
  %55 = getelementptr inbounds [4 x ptr], ptr %54, i64 0, i64 1
  %56 = load ptr, ptr %55, align 8, !tbaa !48
  %57 = load ptr, ptr %5, align 8, !tbaa !204
  %58 = getelementptr inbounds nuw %struct.H6, ptr %57, i32 0, i32 8
  store ptr %56, ptr %58, align 8, !tbaa !260
  ret void
}