; Function Attrs: mustprogress nofree norecurse nosync nounwind willreturn memory(argmem: readwrite) uwtable
define internal fastcc void @InitializeH6(ptr noundef %0, ptr noalias noundef writeonly captures(none) initializes((0, 36), (40, 64)) %1) unnamed_addr #0 {
  %3 = getelementptr inbounds nuw i8, ptr %1, i64 40
  store ptr %0, ptr %3, align 8, !tbaa !649
  %4 = getelementptr inbounds nuw i8, ptr %1, i64 16
  store i64 8922571613522624512, ptr %4, align 8, !tbaa !293
  %5 = getelementptr inbounds nuw i8, ptr %0, i64 60
  %6 = load i32, ptr %5, align 4, !tbaa !643
  %7 = zext nneg i32 %6 to i64
  %8 = shl nuw i64 1, %7
  store i64 %8, ptr %1, align 8, !tbaa !650
  %9 = getelementptr inbounds nuw i8, ptr %0, i64 64
  %10 = load i32, ptr %9, align 8, !tbaa !645
  %11 = getelementptr inbounds nuw i8, ptr %1, i64 28
  store i32 %10, ptr %11, align 4, !tbaa !299
  %12 = zext nneg i32 %10 to i64
  %13 = shl nuw i64 1, %12
  %14 = getelementptr inbounds nuw i8, ptr %1, i64 8
  store i64 %13, ptr %14, align 8, !tbaa !651
  %15 = trunc i64 %13 to i32
  %16 = add i32 %15, -1
  %17 = getelementptr inbounds nuw i8, ptr %1, i64 24
  store i32 %16, ptr %17, align 8, !tbaa !298
  %18 = getelementptr inbounds nuw i8, ptr %0, i64 68
  %19 = load i32, ptr %18, align 4, !tbaa !647
  %20 = getelementptr inbounds nuw i8, ptr %1, i64 32
  store i32 %19, ptr %20, align 8, !tbaa !652
  %21 = load ptr, ptr %0, align 8, !tbaa !63
  %22 = getelementptr inbounds nuw i8, ptr %1, i64 48
  store ptr %21, ptr %22, align 8, !tbaa !291
  %23 = getelementptr inbounds nuw i8, ptr %0, i64 8
  %24 = load ptr, ptr %23, align 8, !tbaa !63
  %25 = getelementptr inbounds nuw i8, ptr %1, i64 56
  store ptr %24, ptr %25, align 8, !tbaa !292
  ret void
}